target datalayout = "e-m:e-p270:32:32-p271:32:32-p272:64:64-i64:64-i128:128-f80:128-n8:16:32:64-S128"
target triple = "x86_64-pc-linux-gnu"

@_ZN12duckdb_minizL18s_tdefl_num_probesE = internal constant [11 x i32] [i32 0, i32 1, i32 6, i32 32, i32 16, i32 32, i32 128, i32 256, i32 512, i32 768, i32 1500], align 16

; Function Attrs: mustprogress nounwind uwtable
define noundef i32 @_ZN12duckdb_miniz39tdefl_create_comp_flags_from_zip_paramsEiii(i32 noundef %0, i32 noundef %1, i32 noundef %2) #0 {
  %4 = alloca i32, align 4
  %5 = alloca i32, align 4
  %6 = alloca i32, align 4
  %7 = alloca i32, align 4
  store i32 %0, ptr %4, align 4, !tbaa !10
  store i32 %1, ptr %5, align 4, !tbaa !10
  store i32 %2, ptr %6, align 4, !tbaa !10
  call void @llvm.lifetime.start.p0(i64 4, ptr %7) #11
  %8 = load i32, ptr %4, align 4, !tbaa !10
  %9 = icmp sge i32 %8, 0
  br i1 %9, label %10, label %18

10:                                               ; preds = %3
  %11 = load i32, ptr %4, align 4, !tbaa !10
  %12 = icmp slt i32 10, %11
  br i1 %12, label %13, label %14

13:                                               ; preds = %10
  br label %16

14:                                               ; preds = %10
  %15 = load i32, ptr %4, align 4, !tbaa !10
  br label %16

16:                                               ; preds = %14, %13
  %17 = phi i32 [ 10, %13 ], [ %15, %14 ]
  br label %19

18:                                               ; preds = %3
  br label %19

19:                                               ; preds = %18, %16
  %20 = phi i32 [ %17, %16 ], [ 6, %18 ]
  %21 = sext i32 %20 to i64
  %22 = getelementptr inbounds [11 x i32], ptr @_ZN12duckdb_minizL18s_tdefl_num_probesE, i64 0, i64 %21
  %23 = load i32, ptr %22, align 4, !tbaa !10
  %24 = load i32, ptr %4, align 4, !tbaa !10
  %25 = icmp sle i32 %24, 3
  %26 = select i1 %25, i32 16384, i32 0
  %27 = or i32 %23, %26
  store i32 %27, ptr %7, align 4, !tbaa !10
  %28 = load i32, ptr %5, align 4, !tbaa !10
  %29 = icmp sgt i32 %28, 0
  br i1 %29, label %30, label %33

30:                                               ; preds = %19
  %31 = load i32, ptr %7, align 4, !tbaa !10
  %32 = or i32 %31, 4096
  store i32 %32, ptr %7, align 4, !tbaa !10
  br label %33

33:                                               ; preds = %30, %19
  %34 = load i32, ptr %4, align 4, !tbaa !10
  %35 = icmp ne i32 %34, 0
  br i1 %35, label %39, label %36

36:                                               ; preds = %33
  %37 = load i32, ptr %7, align 4, !tbaa !10
  %38 = or i32 %37, 524288
  store i32 %38, ptr %7, align 4, !tbaa !10
  br label %67

39:                                               ; preds = %33
  %40 = load i32, ptr %6, align 4, !tbaa !10
  %41 = icmp eq i32 %40, 1
  br i1 %41, label %42, label %45

42:                                               ; preds = %39
  %43 = load i32, ptr %7, align 4, !tbaa !10
  %44 = or i32 %43, 131072
  store i32 %44, ptr %7, align 4, !tbaa !10
  br label %66

45:                                               ; preds = %39
  %46 = load i32, ptr %6, align 4, !tbaa !10
  %47 = icmp eq i32 %46, 2
  br i1 %47, label %48, label %51

48:                                               ; preds = %45
  %49 = load i32, ptr %7, align 4, !tbaa !10
  %50 = and i32 %49, -4096
  store i32 %50, ptr %7, align 4, !tbaa !10
  br label %65

51:                                               ; preds = %45
  %52 = load i32, ptr %6, align 4, !tbaa !10
  %53 = icmp eq i32 %52, 4
  br i1 %53, label %54, label %57

54:                                               ; preds = %51
  %55 = load i32, ptr %7, align 4, !tbaa !10
  %56 = or i32 %55, 262144
  store i32 %56, ptr %7, align 4, !tbaa !10
  br label %64

57:                                               ; preds = %51
  %58 = load i32, ptr %6, align 4, !tbaa !10
  %59 = icmp eq i32 %58, 3
  br i1 %59, label %60, label %63

60:                                               ; preds = %57
  %61 = load i32, ptr %7, align 4, !tbaa !10
  %62 = or i32 %61, 65536
  store i32 %62, ptr %7, align 4, !tbaa !10
  br label %63

63:                                               ; preds = %60, %57
  br label %64

64:                                               ; preds = %63, %54
  br label %65

65:                                               ; preds = %64, %48
  br label %66

66:                                               ; preds = %65, %42
  br label %67

67:                                               ; preds = %66, %36
  %68 = load i32, ptr %7, align 4, !tbaa !10
  call void @llvm.lifetime.end.p0(i64 4, ptr %7) #11
  ret i32 %68
}