; Function Attrs: mustprogress nofree norecurse nosync nounwind willreturn memory(none) uwtable
define noundef i32 @_ZN12duckdb_miniz39tdefl_create_comp_flags_from_zip_paramsEiii(i32 noundef %0, i32 noundef %1, i32 noundef %2) local_unnamed_addr #7 {
  %4 = icmp sgt i32 %0, -1
  %5 = tail call i32 @llvm.umin.i32(i32 %0, i32 10)
  %6 = select i1 %4, i32 %5, i32 6
  %7 = zext nneg i32 %6 to i64
  %8 = getelementptr inbounds nuw [11 x i32], ptr @_ZZN12duckdb_miniz42tdefl_write_image_to_png_file_in_memory_exEPKviiiPmjiE22s_tdefl_png_num_probes, i64 0, i64 %7
  %9 = load i32, ptr %8, align 4, !tbaa !10
  %10 = icmp slt i32 %0, 4
  %11 = select i1 %10, i32 16384, i32 0
  %12 = or i32 %9, %11
  %13 = icmp sgt i32 %1, 0
  %14 = or i32 %12, 4096
  %spec.select = select i1 %13, i32 %14, i32 %12
  %.not = icmp eq i32 %0, 0
  br i1 %.not, label %15, label %17

15:                                               ; preds = %3
  %16 = or i32 %spec.select, 524288
  br label %26

17:                                               ; preds = %3
  switch i32 %2, label %26 [
    i32 1, label %18
    i32 2, label %20
    i32 4, label %22
    i32 3, label %24
  ]

18:                                               ; preds = %17
  %19 = or i32 %spec.select, 131072
  br label %26

20:                                               ; preds = %17
  %21 = and i32 %spec.select, -4096
  br label %26

22:                                               ; preds = %17
  %23 = or i32 %spec.select, 262144
  br label %26

24:                                               ; preds = %17
  %25 = or i32 %spec.select, 65536
  br label %26

26:                                               ; preds = %17, %18, %22, %24, %20, %15
  %.1 = phi i32 [ %19, %18 ], [ %21, %20 ], [ %23, %22 ], [ %25, %24 ], [ %16, %15 ], [ %spec.select, %17 ]
  ret i32 %.1
}